(dp0
S'a'
p1
ccopy_reg
_reconstructor
p2
(cmodels
Url
p3
c__builtin__
object
p4
Ntp5
Rp6
(dp7
S'short_url'
p8
g1
sS'full_url'
p9
Vkakkakaka
p10
sbsS'c'
p11
g2
(g3
g4
Ntp12
Rp13
(dp14
g8
g11
sg9
Vhttp://facebook.com
p15
sbsS'b'
p16
g2
(g3
g4
Ntp17
Rp18
(dp19
g8
g16
sg9
Vhttp://facebook.com
p20
sbsS'e'
p21
g2
(g3
g4
Ntp22
Rp23
(dp24
g8
g21
sg9
Vhttp://google.com
p25
sbsS'd'
p26
g2
(g3
g4
Ntp27
Rp28
(dp29
g8
g26
sg9
Vhttp://google.com
p30
sbsS'f'
p31
g2
(g3
g4
Ntp32
Rp33
(dp34
g8
g31
sg9
Vhttp://google.com
p35
sbs.